; Function Attrs: mustprogress nounwind uwtable
define void @_Z18_gmx_sel_yyrestartP8_IO_FILEPv(ptr noundef %0, ptr nocapture noundef %1) local_unnamed_addr #1 {
  %3 = getelementptr inbounds i8, ptr %1, i64 40
  %4 = load ptr, ptr %3, align 8
  %.not = icmp eq ptr %4, null
  br i1 %.not, label %11, label %5

5:                                                ; preds = %2
  %6 = getelementptr inbounds i8, ptr %1, i64 24
  %7 = load i64, ptr %6, align 8
  %8 = getelementptr inbounds ptr, ptr %4, i64 %7
  %9 = load ptr, ptr %8, align 8
  %10 = icmp eq ptr %9, null
  br i1 %10, label %.critedge, label %.thread20

11:                                               ; preds = %2
  %12 = tail call noalias noundef dereferenceable_or_null(8) ptr @malloc(i64 noundef 8) #28
  store ptr %12, ptr %3, align 8
  %.not28.i = icmp eq ptr %12, null
  br i1 %.not28.i, label %13, label %14

13:                                               ; preds = %11
  tail call fastcc void @_ZL14yy_fatal_errorPKcPv(ptr noundef nonnull @.str.13) #29
  unreachable

14:                                               ; preds = %11
  store i64 0, ptr %12, align 8
  %15 = getelementptr inbounds i8, ptr %1, i64 32
  store i64 1, ptr %15, align 8
  %16 = getelementptr inbounds i8, ptr %1, i64 24
  store i64 0, ptr %16, align 8
  br label %28

.critedge:                                        ; preds = %5
  %17 = getelementptr inbounds i8, ptr %1, i64 32
  %18 = load i64, ptr %17, align 8
  %19 = add i64 %18, -1
  %.not29.i = icmp ult i64 %7, %19
  br i1 %.not29.i, label %28, label %20

20:                                               ; preds = %.critedge
  %21 = add i64 %18, 8
  %22 = shl i64 %21, 3
  %23 = tail call noalias noundef ptr @realloc(ptr noundef nonnull %4, i64 noundef %22) #30
  store ptr %23, ptr %3, align 8
  %.not30.i = icmp eq ptr %23, null
  br i1 %.not30.i, label %24, label %25

24:                                               ; preds = %20
  tail call fastcc void @_ZL14yy_fatal_errorPKcPv(ptr noundef nonnull @.str.13) #29
  unreachable

25:                                               ; preds = %20
  %26 = load i64, ptr %17, align 8
  %27 = getelementptr inbounds ptr, ptr %23, i64 %26
  tail call void @llvm.memset.p0.i64(ptr noundef nonnull align 8 dereferenceable(64) %27, i8 0, i64 64, i1 false)
  store i64 %21, ptr %17, align 8
  br label %28

28:                                               ; preds = %25, %.critedge, %14
  %29 = getelementptr inbounds i8, ptr %1, i64 8
  %30 = load ptr, ptr %29, align 8
  %31 = tail call noundef ptr @_Z25_gmx_sel_yy_create_bufferP8_IO_FILEiPv(ptr noundef %30, i32 noundef 16384, ptr noundef nonnull %1)
  %32 = load ptr, ptr %3, align 8
  %33 = getelementptr inbounds i8, ptr %1, i64 24
  %34 = load i64, ptr %33, align 8
  %35 = getelementptr inbounds ptr, ptr %32, i64 %34
  store ptr %31, ptr %35, align 8
  %.pre = load ptr, ptr %3, align 8
  %.not17 = icmp eq ptr %.pre, null
  br i1 %.not17, label %.thread, label %.thread20

.thread:                                          ; preds = %28
  %36 = tail call ptr @__errno_location() #32
  %37 = load i32, ptr %36, align 4
  br label %_Z24_gmx_sel_yy_flush_bufferP15yy_buffer_statePv.exit.i

.thread20:                                        ; preds = %5, %28
  %38 = phi ptr [ %.pre, %28 ], [ %4, %5 ]
  %39 = getelementptr inbounds i8, ptr %1, i64 24
  %40 = load i64, ptr %39, align 8
  %41 = getelementptr inbounds ptr, ptr %38, i64 %40
  %42 = load ptr, ptr %41, align 8
  %43 = tail call ptr @__errno_location() #32
  %44 = load i32, ptr %43, align 4
  %.not.i.i = icmp eq ptr %42, null
  br i1 %.not.i.i, label %_Z24_gmx_sel_yy_flush_bufferP15yy_buffer_statePv.exit.i, label %45

45:                                               ; preds = %.thread20
  %46 = getelementptr inbounds i8, ptr %42, i64 32
  store i64 0, ptr %46, align 8
  %47 = getelementptr inbounds i8, ptr %42, i64 8
  %48 = load ptr, ptr %47, align 8
  store i8 0, ptr %48, align 1
  %49 = load ptr, ptr %47, align 8
  %50 = getelementptr inbounds i8, ptr %49, i64 1
  store i8 0, ptr %50, align 1
  %51 = load ptr, ptr %47, align 8
  %52 = getelementptr inbounds i8, ptr %42, i64 16
  store ptr %51, ptr %52, align 8
  %53 = getelementptr inbounds i8, ptr %42, i64 48
  store i32 1, ptr %53, align 8
  %54 = getelementptr inbounds i8, ptr %42, i64 64
  store i32 0, ptr %54, align 8
  %55 = load ptr, ptr %3, align 8
  %.not15.i.i = icmp eq ptr %55, null
  br i1 %.not15.i.i, label %60, label %56

56:                                               ; preds = %45
  %57 = load i64, ptr %39, align 8
  %58 = getelementptr inbounds ptr, ptr %55, i64 %57
  %59 = load ptr, ptr %58, align 8
  br label %60

60:                                               ; preds = %56, %45
  %61 = phi ptr [ %59, %56 ], [ null, %45 ]
  %62 = icmp eq ptr %61, %42
  br i1 %62, label %63, label %_Z24_gmx_sel_yy_flush_bufferP15yy_buffer_statePv.exit.i

63:                                               ; preds = %60
  %64 = load i64, ptr %39, align 8
  %65 = getelementptr inbounds ptr, ptr %55, i64 %64
  %66 = load ptr, ptr %65, align 8
  %67 = getelementptr inbounds i8, ptr %66, i64 32
  %68 = load i64, ptr %67, align 8
  %69 = getelementptr inbounds i8, ptr %1, i64 56
  store i64 %68, ptr %69, align 8
  %70 = load ptr, ptr %65, align 8
  %71 = getelementptr inbounds i8, ptr %70, i64 16
  %72 = load ptr, ptr %71, align 8
  %73 = getelementptr inbounds i8, ptr %1, i64 72
  store ptr %72, ptr %73, align 8
  %74 = getelementptr inbounds i8, ptr %1, i64 136
  store ptr %72, ptr %74, align 8
  %75 = load ptr, ptr %65, align 8
  %76 = load ptr, ptr %75, align 8
  %77 = getelementptr inbounds i8, ptr %1, i64 8
  store ptr %76, ptr %77, align 8
  %78 = load i8, ptr %72, align 1
  %79 = getelementptr inbounds i8, ptr %1, i64 48
  store i8 %78, ptr %79, align 8
  br label %_Z24_gmx_sel_yy_flush_bufferP15yy_buffer_statePv.exit.i

_Z24_gmx_sel_yy_flush_bufferP15yy_buffer_statePv.exit.i: ; preds = %.thread, %63, %60, %.thread20
  %80 = phi i32 [ %37, %.thread ], [ %44, %63 ], [ %44, %60 ], [ %44, %.thread20 ]
  %81 = phi ptr [ %36, %.thread ], [ %43, %63 ], [ %43, %60 ], [ %43, %.thread20 ]
  %82 = phi ptr [ null, %.thread ], [ %42, %63 ], [ %42, %60 ], [ null, %.thread20 ]
  store ptr %0, ptr %82, align 8
  %83 = getelementptr inbounds i8, ptr %82, i64 60
  store i32 1, ptr %83, align 4
  %84 = load ptr, ptr %3, align 8
  %.not.i18 = icmp eq ptr %84, null
  br i1 %.not.i18, label %90, label %85

85:                                               ; preds = %_Z24_gmx_sel_yy_flush_bufferP15yy_buffer_statePv.exit.i
  %86 = getelementptr inbounds i8, ptr %1, i64 24
  %87 = load i64, ptr %86, align 8
  %88 = getelementptr inbounds ptr, ptr %84, i64 %87
  %89 = load ptr, ptr %88, align 8
  br label %90

90:                                               ; preds = %85, %_Z24_gmx_sel_yy_flush_bufferP15yy_buffer_statePv.exit.i
  %91 = phi ptr [ %89, %85 ], [ null, %_Z24_gmx_sel_yy_flush_bufferP15yy_buffer_statePv.exit.i ]
  %.not14.i = icmp eq ptr %91, %82
  br i1 %.not14.i, label %_ZL23_gmx_sel_yy_init_bufferP15yy_buffer_stateP8_IO_FILEPv.exit, label %92

92:                                               ; preds = %90
  %93 = getelementptr inbounds i8, ptr %82, i64 52
  store i32 1, ptr %93, align 4
  %94 = getelementptr inbounds i8, ptr %82, i64 56
  store i32 0, ptr %94, align 8
  br label %_ZL23_gmx_sel_yy_init_bufferP15yy_buffer_stateP8_IO_FILEPv.exit

_ZL23_gmx_sel_yy_init_bufferP15yy_buffer_stateP8_IO_FILEPv.exit: ; preds = %90, %92
  %95 = getelementptr inbounds i8, ptr %82, i64 44
  store i32 0, ptr %95, align 4
  store i32 %80, ptr %81, align 4
  %96 = load ptr, ptr %3, align 8
  %97 = getelementptr inbounds i8, ptr %1, i64 24
  %98 = load i64, ptr %97, align 8
  %99 = getelementptr inbounds ptr, ptr %96, i64 %98
  %100 = load ptr, ptr %99, align 8
  %101 = getelementptr inbounds i8, ptr %100, i64 32
  %102 = load i64, ptr %101, align 8
  %103 = getelementptr inbounds i8, ptr %1, i64 56
  store i64 %102, ptr %103, align 8
  %104 = load ptr, ptr %99, align 8
  %105 = getelementptr inbounds i8, ptr %104, i64 16
  %106 = load ptr, ptr %105, align 8
  %107 = getelementptr inbounds i8, ptr %1, i64 72
  store ptr %106, ptr %107, align 8
  %108 = getelementptr inbounds i8, ptr %1, i64 136
  store ptr %106, ptr %108, align 8
  %109 = load ptr, ptr %99, align 8
  %110 = load ptr, ptr %109, align 8
  %111 = getelementptr inbounds i8, ptr %1, i64 8
  store ptr %110, ptr %111, align 8
  %112 = load i8, ptr %106, align 1
  %113 = getelementptr inbounds i8, ptr %1, i64 48
  store i8 %112, ptr %113, align 8
  ret void
}